; Function Attrs: mustprogress uwtable
define void @_Z12print_binaryy(i64 noundef %0) local_unnamed_addr #4 {
  br label %22

2:                                                ; preds = %33
  %3 = load ptr, ptr @_ZSt4cout, align 8, !tbaa !22
  %4 = getelementptr i8, ptr %3, i64 -24
  %5 = load i64, ptr %4, align 8
  %6 = getelementptr inbounds i8, ptr @_ZSt4cout, i64 %5
  %7 = getelementptr inbounds nuw i8, ptr %6, i64 240
  %8 = load ptr, ptr %7, align 8, !tbaa !24
  %.not.i.i.i = icmp eq ptr %8, null
  br i1 %.not.i.i.i, label %9, label %_ZSt13__check_facetISt5ctypeIcEERKT_PS3_.exit.i.i

9:                                                ; preds = %2
  tail call void @_ZSt16__throw_bad_castv() #21
  unreachable

_ZSt13__check_facetISt5ctypeIcEERKT_PS3_.exit.i.i: ; preds = %2
  %10 = getelementptr inbounds nuw i8, ptr %8, i64 56
  %11 = load i8, ptr %10, align 8, !tbaa !41
  %.not.i1.i.i = icmp eq i8 %11, 0
  br i1 %.not.i1.i.i, label %15, label %12

12:                                               ; preds = %_ZSt13__check_facetISt5ctypeIcEERKT_PS3_.exit.i.i
  %13 = getelementptr inbounds nuw i8, ptr %8, i64 67
  %14 = load i8, ptr %13, align 1, !tbaa !13
  br label %_ZSt4endlIcSt11char_traitsIcEERSt13basic_ostreamIT_T0_ES6_.exit

15:                                               ; preds = %_ZSt13__check_facetISt5ctypeIcEERKT_PS3_.exit.i.i
  tail call void @_ZNKSt5ctypeIcE13_M_widen_initEv(ptr noundef nonnull align 8 dereferenceable(570) %8)
  %16 = load ptr, ptr %8, align 8, !tbaa !22
  %17 = getelementptr inbounds nuw i8, ptr %16, i64 48
  %18 = load ptr, ptr %17, align 8
  %19 = tail call noundef signext i8 %18(ptr noundef nonnull align 8 dereferenceable(570) %8, i8 noundef signext 10)
  br label %_ZSt4endlIcSt11char_traitsIcEERSt13basic_ostreamIT_T0_ES6_.exit

_ZSt4endlIcSt11char_traitsIcEERSt13basic_ostreamIT_T0_ES6_.exit: ; preds = %12, %15
  %.0.i.i.i = phi i8 [ %14, %12 ], [ %19, %15 ]
  %20 = tail call noundef nonnull align 8 dereferenceable(8) ptr @_ZNSo3putEc(ptr noundef nonnull align 8 dereferenceable(8) @_ZSt4cout, i8 noundef signext %.0.i.i.i)
  %21 = tail call noundef nonnull align 8 dereferenceable(8) ptr @_ZNSo5flushEv(ptr noundef nonnull align 8 dereferenceable(8) %20)
  ret void

22:                                               ; preds = %1, %33
  %indvars.iv = phi i64 [ 0, %1 ], [ %indvars.iv.next, %33 ]
  %23 = trunc nuw nsw i64 %indvars.iv to i32
  %24 = and i32 %23, 3
  %25 = icmp eq i32 %24, 0
  br i1 %25, label %26, label %28

26:                                               ; preds = %22
  %27 = tail call noundef nonnull align 8 dereferenceable(8) ptr @_ZSt16__ostream_insertIcSt11char_traitsIcEERSt13basic_ostreamIT_T0_ES6_PKS3_l(ptr noundef nonnull align 8 dereferenceable(8) @_ZSt4cout, ptr noundef nonnull @.str.8, i64 noundef 1)
  br label %28

28:                                               ; preds = %26, %22
  %29 = and i32 %23, 15
  %30 = icmp eq i32 %29, 0
  br i1 %30, label %31, label %33

31:                                               ; preds = %28
  %32 = tail call noundef nonnull align 8 dereferenceable(8) ptr @_ZSt16__ostream_insertIcSt11char_traitsIcEERSt13basic_ostreamIT_T0_ES6_PKS3_l(ptr noundef nonnull align 8 dereferenceable(8) @_ZSt4cout, ptr noundef nonnull @.str.8, i64 noundef 1)
  br label %33

33:                                               ; preds = %31, %28
  %34 = lshr i64 %0, %indvars.iv
  %35 = trunc i64 %34 to i32
  %. = and i32 %35, 1
  %36 = tail call noundef nonnull align 8 dereferenceable(8) ptr @_ZNSolsEi(ptr noundef nonnull align 8 dereferenceable(8) @_ZSt4cout, i32 noundef %.)
  %indvars.iv.next = add nuw nsw i64 %indvars.iv, 1
  %exitcond.not = icmp eq i64 %indvars.iv.next, 64
  br i1 %exitcond.not, label %2, label %22, !llvm.loop !47
}